target datalayout = "e-m:e-p270:32:32-p271:32:32-p272:64:64-i64:64-i128:128-f80:128-n8:16:32:64-S128"
target triple = "x86_64-pc-linux-gnu"

%struct.Texture = type { i32, i32, i32, i32, i32 }
%struct.Rectangle = type { float, float, float, float }
%struct.Color = type { i8, i8, i8, i8 }
%struct.Vector2 = type { float, float }

@texShapes = internal global %struct.Texture { i32 1, i32 1, i32 1, i32 1, i32 7 }, align 4
@texShapesRec = internal global %struct.Rectangle { float 0.000000e+00, float 0.000000e+00, float 1.000000e+00, float 1.000000e+00 }, align 4

; Function Attrs: nounwind uwtable
define { <2 x float>, <2 x float> } @GetShapesTextureRectangle() #2 {
  %1 = alloca %struct.Rectangle, align 4
  call void @llvm.memcpy.p0.p0.i64(ptr align 4 %1, ptr align 4 @texShapesRec, i64 16, i1 false)
  %2 = load { <2 x float>, <2 x float> }, ptr %1, align 4
  ret { <2 x float>, <2 x float> } %2
}

; Function Attrs: nounwind uwtable
define void @GetShapesTexture(ptr dead_on_unwind noalias writable sret(%struct.Texture) align 4 %0) #2 {
  call void @llvm.memcpy.p0.p0.i64(ptr align 4 %0, ptr align 4 @texShapes, i64 20, i1 false)
  ret void
}

; Function Attrs: nounwind uwtable
define void @DrawPoly(<2 x float> %0, i32 noundef %1, float noundef %2, float noundef %3, i32 %4) #0 {
  %6 = alloca %struct.Vector2, align 4
  %7 = alloca %struct.Color, align 1
  %8 = alloca i32, align 4
  %9 = alloca float, align 4
  %10 = alloca float, align 4
  %11 = alloca float, align 4
  %12 = alloca float, align 4
  %13 = alloca %struct.Texture, align 4
  %14 = alloca %struct.Rectangle, align 4
  %15 = alloca i32, align 4
  %16 = alloca float, align 4
  store <2 x float> %0, ptr %6, align 4
  store i32 %4, ptr %7, align 1
  store i32 %1, ptr %8, align 4
  store float %2, ptr %9, align 4
  store float %3, ptr %10, align 4
  %17 = load i32, ptr %8, align 4
  %18 = icmp slt i32 %17, 3
  br i1 %18, label %19, label %20

19:                                               ; preds = %5
  store i32 3, ptr %8, align 4
  br label %20

20:                                               ; preds = %19, %5
  call void @llvm.lifetime.start.p0(i64 4, ptr %11) #8
  %21 = load float, ptr %10, align 4
  %22 = fmul float %21, 0x3F91DF46A0000000
  store float %22, ptr %11, align 4
  call void @llvm.lifetime.start.p0(i64 4, ptr %12) #8
  %23 = load i32, ptr %8, align 4
  %24 = sitofp i32 %23 to float
  %25 = fdiv float 3.600000e+02, %24
  %26 = fmul float %25, 0x3F91DF46A0000000
  store float %26, ptr %12, align 4
  call void @GetShapesTexture(ptr dead_on_unwind writable sret(%struct.Texture) align 4 %13)
  %27 = getelementptr inbounds nuw %struct.Texture, ptr %13, i32 0, i32 0
  %28 = load i32, ptr %27, align 4
  call void @rlSetTexture(i32 noundef %28)
  call void @llvm.lifetime.start.p0(i64 16, ptr %14) #8
  %29 = call { <2 x float>, <2 x float> } @GetShapesTextureRectangle()
  %30 = getelementptr inbounds nuw { <2 x float>, <2 x float> }, ptr %14, i32 0, i32 0
  %31 = extractvalue { <2 x float>, <2 x float> } %29, 0
  store <2 x float> %31, ptr %30, align 4
  %32 = getelementptr inbounds nuw { <2 x float>, <2 x float> }, ptr %14, i32 0, i32 1
  %33 = extractvalue { <2 x float>, <2 x float> } %29, 1
  store <2 x float> %33, ptr %32, align 4
  call void @rlBegin(i32 noundef 7)
  call void @llvm.lifetime.start.p0(i64 4, ptr %15) #8
  store i32 0, ptr %15, align 4
  br label %34

34:                                               ; preds = %144, %20
  %35 = load i32, ptr %15, align 4
  %36 = load i32, ptr %8, align 4
  %37 = icmp slt i32 %35, %36
  br i1 %37, label %39, label %38

38:                                               ; preds = %34
  call void @llvm.lifetime.end.p0(i64 4, ptr %15) #8
  br label %147

39:                                               ; preds = %34
  %40 = getelementptr inbounds nuw %struct.Color, ptr %7, i32 0, i32 0
  %41 = load i8, ptr %40, align 1
  %42 = getelementptr inbounds nuw %struct.Color, ptr %7, i32 0, i32 1
  %43 = load i8, ptr %42, align 1
  %44 = getelementptr inbounds nuw %struct.Color, ptr %7, i32 0, i32 2
  %45 = load i8, ptr %44, align 1
  %46 = getelementptr inbounds nuw %struct.Color, ptr %7, i32 0, i32 3
  %47 = load i8, ptr %46, align 1
  call void @rlColor4ub(i8 noundef zeroext %41, i8 noundef zeroext %43, i8 noundef zeroext %45, i8 noundef zeroext %47)
  call void @llvm.lifetime.start.p0(i64 4, ptr %16) #8
  %48 = load float, ptr %11, align 4
  %49 = load float, ptr %12, align 4
  %50 = fadd float %48, %49
  store float %50, ptr %16, align 4
  %51 = getelementptr inbounds nuw %struct.Rectangle, ptr %14, i32 0, i32 0
  %52 = load float, ptr %51, align 4
  %53 = load i32, ptr getelementptr inbounds nuw (%struct.Texture, ptr @texShapes, i32 0, i32 1), align 4
  %54 = sitofp i32 %53 to float
  %55 = fdiv float %52, %54
  %56 = getelementptr inbounds nuw %struct.Rectangle, ptr %14, i32 0, i32 1
  %57 = load float, ptr %56, align 4
  %58 = load i32, ptr getelementptr inbounds nuw (%struct.Texture, ptr @texShapes, i32 0, i32 2), align 4
  %59 = sitofp i32 %58 to float
  %60 = fdiv float %57, %59
  call void @rlTexCoord2f(float noundef %55, float noundef %60)
  %61 = getelementptr inbounds nuw %struct.Vector2, ptr %6, i32 0, i32 0
  %62 = load float, ptr %61, align 4
  %63 = getelementptr inbounds nuw %struct.Vector2, ptr %6, i32 0, i32 1
  %64 = load float, ptr %63, align 4
  call void @rlVertex2f(float noundef %62, float noundef %64)
  %65 = getelementptr inbounds nuw %struct.Rectangle, ptr %14, i32 0, i32 0
  %66 = load float, ptr %65, align 4
  %67 = load i32, ptr getelementptr inbounds nuw (%struct.Texture, ptr @texShapes, i32 0, i32 1), align 4
  %68 = sitofp i32 %67 to float
  %69 = fdiv float %66, %68
  %70 = getelementptr inbounds nuw %struct.Rectangle, ptr %14, i32 0, i32 1
  %71 = load float, ptr %70, align 4
  %72 = getelementptr inbounds nuw %struct.Rectangle, ptr %14, i32 0, i32 3
  %73 = load float, ptr %72, align 4
  %74 = fadd float %71, %73
  %75 = load i32, ptr getelementptr inbounds nuw (%struct.Texture, ptr @texShapes, i32 0, i32 2), align 4
  %76 = sitofp i32 %75 to float
  %77 = fdiv float %74, %76
  call void @rlTexCoord2f(float noundef %69, float noundef %77)
  %78 = getelementptr inbounds nuw %struct.Vector2, ptr %6, i32 0, i32 0
  %79 = load float, ptr %78, align 4
  %80 = load float, ptr %11, align 4
  %81 = call float @cosf(float noundef %80) #8
  %82 = load float, ptr %9, align 4
  %83 = call float @llvm.fmuladd.f32(float %81, float %82, float %79)
  %84 = getelementptr inbounds nuw %struct.Vector2, ptr %6, i32 0, i32 1
  %85 = load float, ptr %84, align 4
  %86 = load float, ptr %11, align 4
  %87 = call float @sinf(float noundef %86) #8
  %88 = load float, ptr %9, align 4
  %89 = call float @llvm.fmuladd.f32(float %87, float %88, float %85)
  call void @rlVertex2f(float noundef %83, float noundef %89)
  %90 = getelementptr inbounds nuw %struct.Rectangle, ptr %14, i32 0, i32 0
  %91 = load float, ptr %90, align 4
  %92 = getelementptr inbounds nuw %struct.Rectangle, ptr %14, i32 0, i32 2
  %93 = load float, ptr %92, align 4
  %94 = fadd float %91, %93
  %95 = load i32, ptr getelementptr inbounds nuw (%struct.Texture, ptr @texShapes, i32 0, i32 1), align 4
  %96 = sitofp i32 %95 to float
  %97 = fdiv float %94, %96
  %98 = getelementptr inbounds nuw %struct.Rectangle, ptr %14, i32 0, i32 1
  %99 = load float, ptr %98, align 4
  %100 = load i32, ptr getelementptr inbounds nuw (%struct.Texture, ptr @texShapes, i32 0, i32 2), align 4
  %101 = sitofp i32 %100 to float
  %102 = fdiv float %99, %101
  call void @rlTexCoord2f(float noundef %97, float noundef %102)
  %103 = getelementptr inbounds nuw %struct.Vector2, ptr %6, i32 0, i32 0
  %104 = load float, ptr %103, align 4
  %105 = load float, ptr %16, align 4
  %106 = call float @cosf(float noundef %105) #8
  %107 = load float, ptr %9, align 4
  %108 = call float @llvm.fmuladd.f32(float %106, float %107, float %104)
  %109 = getelementptr inbounds nuw %struct.Vector2, ptr %6, i32 0, i32 1
  %110 = load float, ptr %109, align 4
  %111 = load float, ptr %16, align 4
  %112 = call float @sinf(float noundef %111) #8
  %113 = load float, ptr %9, align 4
  %114 = call float @llvm.fmuladd.f32(float %112, float %113, float %110)
  call void @rlVertex2f(float noundef %108, float noundef %114)
  %115 = getelementptr inbounds nuw %struct.Rectangle, ptr %14, i32 0, i32 0
  %116 = load float, ptr %115, align 4
  %117 = getelementptr inbounds nuw %struct.Rectangle, ptr %14, i32 0, i32 2
  %118 = load float, ptr %117, align 4
  %119 = fadd float %116, %118
  %120 = load i32, ptr getelementptr inbounds nuw (%struct.Texture, ptr @texShapes, i32 0, i32 1), align 4
  %121 = sitofp i32 %120 to float
  %122 = fdiv float %119, %121
  %123 = getelementptr inbounds nuw %struct.Rectangle, ptr %14, i32 0, i32 1
  %124 = load float, ptr %123, align 4
  %125 = getelementptr inbounds nuw %struct.Rectangle, ptr %14, i32 0, i32 3
  %126 = load float, ptr %125, align 4
  %127 = fadd float %124, %126
  %128 = load i32, ptr getelementptr inbounds nuw (%struct.Texture, ptr @texShapes, i32 0, i32 2), align 4
  %129 = sitofp i32 %128 to float
  %130 = fdiv float %127, %129
  call void @rlTexCoord2f(float noundef %122, float noundef %130)
  %131 = getelementptr inbounds nuw %struct.Vector2, ptr %6, i32 0, i32 0
  %132 = load float, ptr %131, align 4
  %133 = load float, ptr %11, align 4
  %134 = call float @cosf(float noundef %133) #8
  %135 = load float, ptr %9, align 4
  %136 = call float @llvm.fmuladd.f32(float %134, float %135, float %132)
  %137 = getelementptr inbounds nuw %struct.Vector2, ptr %6, i32 0, i32 1
  %138 = load float, ptr %137, align 4
  %139 = load float, ptr %11, align 4
  %140 = call float @sinf(float noundef %139) #8
  %141 = load float, ptr %9, align 4
  %142 = call float @llvm.fmuladd.f32(float %140, float %141, float %138)
  call void @rlVertex2f(float noundef %136, float noundef %142)
  %143 = load float, ptr %16, align 4
  store float %143, ptr %11, align 4
  call void @llvm.lifetime.end.p0(i64 4, ptr %16) #8
  br label %144

144:                                              ; preds = %39
  %145 = load i32, ptr %15, align 4
  %146 = add nsw i32 %145, 1
  store i32 %146, ptr %15, align 4
  br label %34

147:                                              ; preds = %38
  call void @rlEnd()
  call void @rlSetTexture(i32 noundef 0)
  call void @llvm.lifetime.end.p0(i64 16, ptr %14) #8
  call void @llvm.lifetime.end.p0(i64 4, ptr %12) #8
  call void @llvm.lifetime.end.p0(i64 4, ptr %11) #8
  ret void
}