; Function Attrs: nounwind uwtable
define void @DrawPoly(<2 x float> %0, i32 noundef %1, float noundef %2, float noundef %3, i32 %4) local_unnamed_addr #4 {
  %.sroa.036.0.extract.trunc = trunc i32 %4 to i8
  %.sroa.2.0.extract.shift = lshr i32 %4, 8
  %.sroa.2.0.extract.trunc = trunc i32 %.sroa.2.0.extract.shift to i8
  %.sroa.3.0.extract.shift = lshr i32 %4, 16
  %.sroa.3.0.extract.trunc = trunc i32 %.sroa.3.0.extract.shift to i8
  %.sroa.4.0.extract.shift = lshr i32 %4, 24
  %.sroa.4.0.extract.trunc = trunc nuw i32 %.sroa.4.0.extract.shift to i8
  %spec.store.select = tail call i32 @llvm.smax.i32(i32 %1, i32 3)
  %6 = fmul float %3, 0x3F91DF46A0000000
  %7 = uitofp nneg i32 %spec.store.select to float
  %8 = fdiv float 3.600000e+02, %7
  %9 = fmul float %8, 0x3F91DF46A0000000
  %.sroa.0.0.copyload = load i32, ptr @texShapes, align 4
  tail call void @rlSetTexture(i32 noundef %.sroa.0.0.copyload) #16
  %.sroa.0.0.copyload.i = load <2 x float>, ptr @texShapesRec, align 8
  %.sroa.2.0.copyload.i = load <2 x float>, ptr getelementptr inbounds nuw (i8, ptr @texShapesRec, i64 8), align 8
  tail call void @rlBegin(i32 noundef 7) #16
  %.sroa.0.0.vec.extract = extractelement <2 x float> %.sroa.0.0.copyload.i, i64 0
  %.sroa.0.4.vec.extract = extractelement <2 x float> %.sroa.0.0.copyload.i, i64 1
  %.sroa.037.0.vec.extract = extractelement <2 x float> %0, i64 0
  %.sroa.037.4.vec.extract = extractelement <2 x float> %0, i64 1
  %10 = fadd <2 x float> %.sroa.0.0.copyload.i, %.sroa.2.0.copyload.i
  %11 = extractelement <2 x float> %10, i64 1
  %12 = fadd <2 x float> %.sroa.0.0.copyload.i, %.sroa.2.0.copyload.i
  %13 = extractelement <2 x float> %12, i64 0
  br label %15

14:                                               ; preds = %15
  tail call void @rlEnd() #16
  tail call void @rlSetTexture(i32 noundef 0) #16
  ret void

15:                                               ; preds = %5, %15
  %.052 = phi i32 [ 0, %5 ], [ %53, %15 ]
  %.05051 = phi float [ %6, %5 ], [ %16, %15 ]
  tail call void @rlColor4ub(i8 noundef zeroext %.sroa.036.0.extract.trunc, i8 noundef zeroext %.sroa.2.0.extract.trunc, i8 noundef zeroext %.sroa.3.0.extract.trunc, i8 noundef zeroext %.sroa.4.0.extract.trunc) #16
  %16 = fadd float %9, %.05051
  %17 = load i32, ptr getelementptr inbounds nuw (i8, ptr @texShapes, i64 4), align 4
  %18 = sitofp i32 %17 to float
  %19 = fdiv float %.sroa.0.0.vec.extract, %18
  %20 = load i32, ptr getelementptr inbounds nuw (i8, ptr @texShapes, i64 8), align 4
  %21 = sitofp i32 %20 to float
  %22 = fdiv float %.sroa.0.4.vec.extract, %21
  tail call void @rlTexCoord2f(float noundef %19, float noundef %22) #16
  tail call void @rlVertex2f(float noundef %.sroa.037.0.vec.extract, float noundef %.sroa.037.4.vec.extract) #16
  %23 = load i32, ptr getelementptr inbounds nuw (i8, ptr @texShapes, i64 4), align 4
  %24 = sitofp i32 %23 to float
  %25 = fdiv float %.sroa.0.0.vec.extract, %24
  %26 = load i32, ptr getelementptr inbounds nuw (i8, ptr @texShapes, i64 8), align 4
  %27 = sitofp i32 %26 to float
  %28 = fdiv float %11, %27
  tail call void @rlTexCoord2f(float noundef %25, float noundef %28) #16
  %29 = tail call float @cosf(float noundef %.05051) #16
  %30 = tail call float @llvm.fmuladd.f32(float %29, float %2, float %.sroa.037.0.vec.extract)
  %31 = tail call float @sinf(float noundef %.05051) #16
  %32 = tail call float @llvm.fmuladd.f32(float %31, float %2, float %.sroa.037.4.vec.extract)
  tail call void @rlVertex2f(float noundef %30, float noundef %32) #16
  %33 = load i32, ptr getelementptr inbounds nuw (i8, ptr @texShapes, i64 4), align 4
  %34 = sitofp i32 %33 to float
  %35 = fdiv float %13, %34
  %36 = load i32, ptr getelementptr inbounds nuw (i8, ptr @texShapes, i64 8), align 4
  %37 = sitofp i32 %36 to float
  %38 = fdiv float %.sroa.0.4.vec.extract, %37
  tail call void @rlTexCoord2f(float noundef %35, float noundef %38) #16
  %39 = tail call float @cosf(float noundef %16) #16
  %40 = tail call float @llvm.fmuladd.f32(float %39, float %2, float %.sroa.037.0.vec.extract)
  %41 = tail call float @sinf(float noundef %16) #16
  %42 = tail call float @llvm.fmuladd.f32(float %41, float %2, float %.sroa.037.4.vec.extract)
  tail call void @rlVertex2f(float noundef %40, float noundef %42) #16
  %43 = load i32, ptr getelementptr inbounds nuw (i8, ptr @texShapes, i64 4), align 4
  %44 = sitofp i32 %43 to float
  %45 = fdiv float %13, %44
  %46 = load i32, ptr getelementptr inbounds nuw (i8, ptr @texShapes, i64 8), align 4
  %47 = sitofp i32 %46 to float
  %48 = fdiv float %11, %47
  tail call void @rlTexCoord2f(float noundef %45, float noundef %48) #16
  %49 = tail call float @cosf(float noundef %.05051) #16
  %50 = tail call float @llvm.fmuladd.f32(float %49, float %2, float %.sroa.037.0.vec.extract)
  %51 = tail call float @sinf(float noundef %.05051) #16
  %52 = tail call float @llvm.fmuladd.f32(float %51, float %2, float %.sroa.037.4.vec.extract)
  tail call void @rlVertex2f(float noundef %50, float noundef %52) #16
  %53 = add nuw nsw i32 %.052, 1
  %exitcond.not = icmp eq i32 %53, %spec.store.select
  br i1 %exitcond.not, label %14, label %15
}